target datalayout = "e-m:e-p270:32:32-p271:32:32-p272:64:64-i64:64-i128:128-f80:128-n8:16:32:64-S128"
target triple = "x86_64-pc-linux-gnu"

%struct.LAME = type { i32, i32, [17 x i32] }
%union.anon.0 = type { double }
%struct.anon.1 = type { i32, i32 }

@fpu_words = internal global i32 0, align 4

; Function Attrs: nounwind uwtable
define internal double @LAME_fpusht(ptr noundef %0) #0 {
  %2 = alloca ptr, align 8
  %3 = alloca %union.anon.0, align 8
  %4 = alloca i32, align 4
  store ptr %0, ptr %2, align 8
  %5 = load ptr, ptr %2, align 8
  %6 = getelementptr inbounds %struct.LAME, ptr %5, i32 0, i32 2
  %7 = load ptr, ptr %2, align 8
  %8 = getelementptr inbounds %struct.LAME, ptr %7, i32 0, i32 0
  %9 = load i32, ptr %8, align 4
  %10 = zext i32 %9 to i64
  %11 = getelementptr inbounds [17 x i32], ptr %6, i64 0, i64 %10
  %12 = load i32, ptr %11, align 4
  %13 = shl i32 %12, 9
  %14 = load ptr, ptr %2, align 8
  %15 = getelementptr inbounds %struct.LAME, ptr %14, i32 0, i32 2
  %16 = load ptr, ptr %2, align 8
  %17 = getelementptr inbounds %struct.LAME, ptr %16, i32 0, i32 0
  %18 = load i32, ptr %17, align 4
  %19 = zext i32 %18 to i64
  %20 = getelementptr inbounds [17 x i32], ptr %15, i64 0, i64 %19
  %21 = load i32, ptr %20, align 4
  %22 = lshr i32 %21, 23
  %23 = or i32 %13, %22
  %24 = load ptr, ptr %2, align 8
  %25 = getelementptr inbounds %struct.LAME, ptr %24, i32 0, i32 2
  %26 = load ptr, ptr %2, align 8
  %27 = getelementptr inbounds %struct.LAME, ptr %26, i32 0, i32 1
  %28 = load i32, ptr %27, align 4
  %29 = zext i32 %28 to i64
  %30 = getelementptr inbounds [17 x i32], ptr %25, i64 0, i64 %29
  %31 = load i32, ptr %30, align 4
  %32 = shl i32 %31, 13
  %33 = load ptr, ptr %2, align 8
  %34 = getelementptr inbounds %struct.LAME, ptr %33, i32 0, i32 2
  %35 = load ptr, ptr %2, align 8
  %36 = getelementptr inbounds %struct.LAME, ptr %35, i32 0, i32 1
  %37 = load i32, ptr %36, align 4
  %38 = zext i32 %37 to i64
  %39 = getelementptr inbounds [17 x i32], ptr %34, i64 0, i64 %38
  %40 = load i32, ptr %39, align 4
  %41 = lshr i32 %40, 19
  %42 = or i32 %32, %41
  %43 = add i32 %23, %42
  store i32 %43, ptr %4, align 4
  %44 = load i32, ptr %4, align 4
  %45 = load ptr, ptr %2, align 8
  %46 = getelementptr inbounds %struct.LAME, ptr %45, i32 0, i32 2
  %47 = load ptr, ptr %2, align 8
  %48 = getelementptr inbounds %struct.LAME, ptr %47, i32 0, i32 0
  %49 = load i32, ptr %48, align 4
  %50 = zext i32 %49 to i64
  %51 = getelementptr inbounds [17 x i32], ptr %46, i64 0, i64 %50
  store i32 %44, ptr %51, align 4
  %52 = load ptr, ptr %2, align 8
  %53 = getelementptr inbounds %struct.LAME, ptr %52, i32 0, i32 0
  %54 = load i32, ptr %53, align 4
  %55 = add i32 %54, -1
  store i32 %55, ptr %53, align 4
  %56 = icmp ne i32 %54, 0
  br i1 %56, label %60, label %57

57:                                               ; preds = %1
  %58 = load ptr, ptr %2, align 8
  %59 = getelementptr inbounds %struct.LAME, ptr %58, i32 0, i32 0
  store i32 16, ptr %59, align 4
  br label %60

60:                                               ; preds = %57, %1
  %61 = load ptr, ptr %2, align 8
  %62 = getelementptr inbounds %struct.LAME, ptr %61, i32 0, i32 1
  %63 = load i32, ptr %62, align 4
  %64 = add i32 %63, -1
  store i32 %64, ptr %62, align 4
  %65 = icmp ne i32 %63, 0
  br i1 %65, label %69, label %66

66:                                               ; preds = %60
  %67 = load ptr, ptr %2, align 8
  %68 = getelementptr inbounds %struct.LAME, ptr %67, i32 0, i32 1
  store i32 16, ptr %68, align 4
  br label %69

69:                                               ; preds = %66, %60
  %70 = load i32, ptr @fpu_words, align 4
  %71 = icmp eq i32 %70, 2
  br i1 %71, label %72, label %80

72:                                               ; preds = %69
  %73 = load i32, ptr %4, align 4
  %74 = shl i32 %73, 20
  %75 = getelementptr inbounds %struct.anon.1, ptr %3, i32 0, i32 0
  store i32 %74, ptr %75, align 8
  %76 = load i32, ptr %4, align 4
  %77 = lshr i32 %76, 12
  %78 = or i32 1072693248, %77
  %79 = getelementptr inbounds %struct.anon.1, ptr %3, i32 0, i32 1
  store i32 %78, ptr %79, align 4
  br label %88

80:                                               ; preds = %69
  %81 = load i32, ptr %4, align 4
  %82 = shl i32 %81, 20
  %83 = getelementptr inbounds %struct.anon.1, ptr %3, i32 0, i32 1
  store i32 %82, ptr %83, align 4
  %84 = load i32, ptr %4, align 4
  %85 = lshr i32 %84, 12
  %86 = or i32 1072693248, %85
  %87 = getelementptr inbounds %struct.anon.1, ptr %3, i32 0, i32 0
  store i32 %86, ptr %87, align 8
  br label %88

88:                                               ; preds = %80, %72
  %89 = load double, ptr %3, align 8
  %90 = fsub double %89, 1.000000e+00
  ret double %90
}

; Function Attrs: nounwind uwtable
define internal zeroext i8 @LAME_getnext(ptr noundef %0) #0 {
  %2 = alloca ptr, align 8
  %3 = alloca double, align 8
  %4 = alloca i8, align 1
  store ptr %0, ptr %2, align 8
  %5 = load ptr, ptr %2, align 8
  %6 = call double @LAME_fpusht(ptr noundef %5)
  %7 = load ptr, ptr %2, align 8
  %8 = call double @LAME_fpusht(ptr noundef %7)
  %9 = fmul double %8, 2.560000e+02
  store double %9, ptr %3, align 8
  %10 = load double, ptr %3, align 8
  %11 = fptosi double %10 to i32
  %12 = icmp slt i32 %11, 256
  br i1 %12, label %13, label %16

13:                                               ; preds = %1
  %14 = load double, ptr %3, align 8
  %15 = fptoui double %14 to i8
  store i8 %15, ptr %4, align 1
  br label %17

16:                                               ; preds = %1
  store i8 -1, ptr %4, align 1
  br label %17

17:                                               ; preds = %16, %13
  %18 = load i8, ptr %4, align 1
  ret i8 %18
}

; Function Attrs: nounwind uwtable
define internal void @LAME_srand(ptr noundef %0, i32 noundef %1) #0 {
  %3 = alloca ptr, align 8
  %4 = alloca i32, align 4
  %5 = alloca i32, align 4
  store ptr %0, ptr %3, align 8
  store i32 %1, ptr %4, align 4
  store i32 0, ptr %5, align 4
  br label %6

6:                                                ; preds = %20, %2
  %7 = load i32, ptr %5, align 4
  %8 = icmp ult i32 %7, 17
  br i1 %8, label %9, label %23

9:                                                ; preds = %6
  %10 = load i32, ptr %4, align 4
  %11 = mul i32 %10, 1403630843
  store i32 %11, ptr %4, align 4
  %12 = load i32, ptr %4, align 4
  %13 = sub i32 1, %12
  store i32 %13, ptr %4, align 4
  %14 = load i32, ptr %4, align 4
  %15 = load ptr, ptr %3, align 8
  %16 = getelementptr inbounds %struct.LAME, ptr %15, i32 0, i32 2
  %17 = load i32, ptr %5, align 4
  %18 = zext i32 %17 to i64
  %19 = getelementptr inbounds [17 x i32], ptr %16, i64 0, i64 %18
  store i32 %14, ptr %19, align 4
  br label %20

20:                                               ; preds = %9
  %21 = load i32, ptr %5, align 4
  %22 = add i32 %21, 1
  store i32 %22, ptr %5, align 4
  br label %6

23:                                               ; preds = %6
  %24 = load ptr, ptr %3, align 8
  %25 = getelementptr inbounds %struct.LAME, ptr %24, i32 0, i32 0
  store i32 0, ptr %25, align 4
  %26 = load ptr, ptr %3, align 8
  %27 = getelementptr inbounds %struct.LAME, ptr %26, i32 0, i32 1
  store i32 10, ptr %27, align 4
  store i32 0, ptr %5, align 4
  br label %28

28:                                               ; preds = %34, %23
  %29 = load i32, ptr %5, align 4
  %30 = icmp ult i32 %29, 9
  br i1 %30, label %31, label %37

31:                                               ; preds = %28
  %32 = load ptr, ptr %3, align 8
  %33 = call double @LAME_fpusht(ptr noundef %32)
  br label %34

34:                                               ; preds = %31
  %35 = load i32, ptr %5, align 4
  %36 = add i32 %35, 1
  store i32 %36, ptr %5, align 4
  br label %28

37:                                               ; preds = %28
  ret void
}

; Function Attrs: nounwind uwtable
define internal void @LAME_decrypt(ptr noundef %0, i32 noundef %1, i16 noundef zeroext %2) #0 {
  %4 = alloca ptr, align 8
  %5 = alloca i32, align 4
  %6 = alloca i16, align 2
  %7 = alloca %struct.LAME, align 4
  store ptr %0, ptr %4, align 8
  store i32 %1, ptr %5, align 4
  store i16 %2, ptr %6, align 2
  %8 = load i16, ptr %6, align 2
  %9 = zext i16 %8 to i32
  call void @LAME_srand(ptr noundef %7, i32 noundef %9)
  br label %10

10:                                               ; preds = %14, %3
  %11 = load i32, ptr %5, align 4
  %12 = add i32 %11, -1
  store i32 %12, ptr %5, align 4
  %13 = icmp ne i32 %11, 0
  br i1 %13, label %14, label %23

14:                                               ; preds = %10
  %15 = call zeroext i8 @LAME_getnext(ptr noundef %7)
  %16 = zext i8 %15 to i32
  %17 = load ptr, ptr %4, align 8
  %18 = getelementptr inbounds i8, ptr %17, i32 1
  store ptr %18, ptr %4, align 8
  %19 = load i8, ptr %17, align 1
  %20 = zext i8 %19 to i32
  %21 = xor i32 %20, %16
  %22 = trunc i32 %21 to i8
  store i8 %22, ptr %17, align 1
  br label %10

23:                                               ; preds = %10
  ret void
}