; Function Attrs: nofree norecurse nosync nounwind memory(readwrite, inaccessiblemem: none) uwtable
define internal fastcc void @LAME_decrypt(ptr nocapture noundef %0, i32 noundef %1, i16 noundef zeroext %2) unnamed_addr #6 {
  %4 = alloca %struct.LAME, align 4
  %5 = zext i16 %2 to i32
  %6 = getelementptr inbounds i8, ptr %4, i64 8
  br label %7

7:                                                ; preds = %7, %3
  %indvars.iv.i = phi i64 [ 0, %3 ], [ %indvars.iv.next.i, %7 ]
  %.01112.i = phi i32 [ %5, %3 ], [ %8, %7 ]
  %.neg.i = mul i32 %.01112.i, -1403630843
  %8 = add i32 %.neg.i, 1
  %9 = getelementptr inbounds [17 x i32], ptr %6, i64 0, i64 %indvars.iv.i
  store i32 %8, ptr %9, align 4
  %indvars.iv.next.i = add nuw nsw i64 %indvars.iv.i, 1
  %exitcond.not.i = icmp eq i64 %indvars.iv.next.i, 17
  br i1 %exitcond.not.i, label %LAME_fpusht.exit.i, label %7

LAME_fpusht.exit.i:                               ; preds = %7, %LAME_fpusht.exit.i
  %.117.i = phi i32 [ %22, %LAME_fpusht.exit.i ], [ 0, %7 ]
  %spec.select.i1416.i = phi i32 [ %spec.select.i.i, %LAME_fpusht.exit.i ], [ 0, %7 ]
  %10 = phi i32 [ %storemerge28.i.i, %LAME_fpusht.exit.i ], [ 10, %7 ]
  %11 = zext i32 %spec.select.i1416.i to i64
  %12 = getelementptr inbounds [17 x i32], ptr %6, i64 0, i64 %11
  %13 = load i32, ptr %12, align 4
  %14 = tail call i32 @llvm.fshl.i32(i32 %13, i32 %13, i32 9)
  %15 = zext i32 %10 to i64
  %16 = getelementptr inbounds [17 x i32], ptr %6, i64 0, i64 %15
  %17 = load i32, ptr %16, align 4
  %18 = tail call i32 @llvm.fshl.i32(i32 %17, i32 %17, i32 13)
  %19 = add i32 %18, %14
  store i32 %19, ptr %12, align 4
  %20 = add i32 %spec.select.i1416.i, -1
  %.not.i.i = icmp eq i32 %spec.select.i1416.i, 0
  %spec.select.i.i = select i1 %.not.i.i, i32 16, i32 %20
  %21 = add i32 %10, -1
  %.not27.i.i = icmp eq i32 %10, 0
  %storemerge28.i.i = select i1 %.not27.i.i, i32 16, i32 %21
  %22 = add nuw nsw i32 %.117.i, 1
  %exitcond19.not.i = icmp eq i32 %22, 9
  br i1 %exitcond19.not.i, label %LAME_srand.exit, label %LAME_fpusht.exit.i

LAME_srand.exit:                                  ; preds = %LAME_fpusht.exit.i
  %.not10 = icmp eq i32 %1, 0
  br i1 %.not10, label %._crit_edge, label %.lr.ph

.lr.ph:                                           ; preds = %LAME_srand.exit
  %23 = load i32, ptr @fpu_words, align 4
  %24 = icmp eq i32 %23, 2
  br i1 %24, label %LAME_getnext.exit.us, label %LAME_getnext.exit

LAME_getnext.exit.us:                             ; preds = %.lr.ph, %LAME_getnext.exit.us
  %.013.us = phi ptr [ %57, %LAME_getnext.exit.us ], [ %0, %.lr.ph ]
  %.0212.us = phi i32 [ %26, %LAME_getnext.exit.us ], [ %1, %.lr.ph ]
  %spec.select.i5.i811.us = phi i32 [ %spec.select.i5.i.us, %LAME_getnext.exit.us ], [ 8, %.lr.ph ]
  %25 = phi i32 [ %storemerge28.i7.i.us, %LAME_getnext.exit.us ], [ 1, %.lr.ph ]
  %26 = add i32 %.0212.us, -1
  %27 = zext i32 %spec.select.i5.i811.us to i64
  %28 = getelementptr inbounds [17 x i32], ptr %6, i64 0, i64 %27
  %29 = load i32, ptr %28, align 4
  %30 = tail call i32 @llvm.fshl.i32(i32 %29, i32 %29, i32 9)
  %31 = zext i32 %25 to i64
  %32 = getelementptr inbounds [17 x i32], ptr %6, i64 0, i64 %31
  %33 = load i32, ptr %32, align 4
  %34 = tail call i32 @llvm.fshl.i32(i32 %33, i32 %33, i32 13)
  %35 = add i32 %34, %30
  store i32 %35, ptr %28, align 4
  %36 = add i32 %spec.select.i5.i811.us, -1
  %.not.i.i4.us = icmp eq i32 %spec.select.i5.i811.us, 0
  %spec.select.i.i5.us = select i1 %.not.i.i4.us, i32 16, i32 %36
  %37 = add i32 %25, -1
  %.not27.i.i6.us = icmp eq i32 %25, 0
  %storemerge28.i.i7.us = select i1 %.not27.i.i6.us, i32 16, i32 %37
  %38 = zext i32 %spec.select.i.i5.us to i64
  %39 = getelementptr inbounds [17 x i32], ptr %6, i64 0, i64 %38
  %40 = load i32, ptr %39, align 4
  %41 = tail call i32 @llvm.fshl.i32(i32 %40, i32 %40, i32 9)
  %42 = zext i32 %storemerge28.i.i7.us to i64
  %43 = getelementptr inbounds [17 x i32], ptr %6, i64 0, i64 %42
  %44 = load i32, ptr %43, align 4
  %45 = tail call i32 @llvm.fshl.i32(i32 %44, i32 %44, i32 13)
  %46 = add i32 %45, %41
  store i32 %46, ptr %39, align 4
  %47 = add i32 %spec.select.i.i5.us, -1
  %.not.i4.i.us = icmp eq i32 %spec.select.i.i5.us, 0
  %spec.select.i5.i.us = select i1 %.not.i4.i.us, i32 16, i32 %47
  %48 = add i32 %storemerge28.i.i7.us, -1
  %.not27.i6.i.us = icmp eq i32 %storemerge28.i.i7.us, 0
  %storemerge28.i7.i.us = select i1 %.not27.i6.i.us, i32 16, i32 %48
  %49 = shl i32 %46, 20
  %.sroa.0.0.insert.ext.i8.i.us = zext i32 %49 to i64
  %50 = lshr i32 %46, 12
  %51 = or disjoint i32 %50, 1072693248
  %.sroa.0.4.insert.ext.i14.i.us = zext nneg i32 %51 to i64
  %.sroa.0.4.insert.shift.i15.i.us = shl nuw nsw i64 %.sroa.0.4.insert.ext.i14.i.us, 32
  %.sroa.0.4.insert.insert.i16.i.us = or disjoint i64 %.sroa.0.4.insert.shift.i15.i.us, %.sroa.0.0.insert.ext.i8.i.us
  %.sroa.0.0.i13.i.us = bitcast i64 %.sroa.0.4.insert.insert.i16.i.us to double
  %52 = fadd double %.sroa.0.0.i13.i.us, -1.000000e+00
  %53 = fmul double %52, 2.560000e+02
  %54 = fptosi double %53 to i32
  %55 = icmp slt i32 %54, 256
  %56 = fptoui double %53 to i8
  %.0.i.us = select i1 %55, i8 %56, i8 -1
  %57 = getelementptr inbounds i8, ptr %.013.us, i64 1
  %58 = load i8, ptr %.013.us, align 1
  %59 = xor i8 %.0.i.us, %58
  store i8 %59, ptr %.013.us, align 1
  %.not.us = icmp eq i32 %26, 0
  br i1 %.not.us, label %._crit_edge, label %LAME_getnext.exit.us

LAME_getnext.exit:                                ; preds = %.lr.ph, %LAME_getnext.exit
  %.013 = phi ptr [ %92, %LAME_getnext.exit ], [ %0, %.lr.ph ]
  %.0212 = phi i32 [ %61, %LAME_getnext.exit ], [ %1, %.lr.ph ]
  %spec.select.i5.i811 = phi i32 [ %spec.select.i5.i, %LAME_getnext.exit ], [ 8, %.lr.ph ]
  %60 = phi i32 [ %storemerge28.i7.i, %LAME_getnext.exit ], [ 1, %.lr.ph ]
  %61 = add i32 %.0212, -1
  %62 = zext i32 %spec.select.i5.i811 to i64
  %63 = getelementptr inbounds [17 x i32], ptr %6, i64 0, i64 %62
  %64 = load i32, ptr %63, align 4
  %65 = tail call i32 @llvm.fshl.i32(i32 %64, i32 %64, i32 9)
  %66 = zext i32 %60 to i64
  %67 = getelementptr inbounds [17 x i32], ptr %6, i64 0, i64 %66
  %68 = load i32, ptr %67, align 4
  %69 = tail call i32 @llvm.fshl.i32(i32 %68, i32 %68, i32 13)
  %70 = add i32 %69, %65
  store i32 %70, ptr %63, align 4
  %71 = add i32 %spec.select.i5.i811, -1
  %.not.i.i4 = icmp eq i32 %spec.select.i5.i811, 0
  %spec.select.i.i5 = select i1 %.not.i.i4, i32 16, i32 %71
  %72 = add i32 %60, -1
  %.not27.i.i6 = icmp eq i32 %60, 0
  %storemerge28.i.i7 = select i1 %.not27.i.i6, i32 16, i32 %72
  %73 = zext i32 %spec.select.i.i5 to i64
  %74 = getelementptr inbounds [17 x i32], ptr %6, i64 0, i64 %73
  %75 = load i32, ptr %74, align 4
  %76 = tail call i32 @llvm.fshl.i32(i32 %75, i32 %75, i32 9)
  %77 = zext i32 %storemerge28.i.i7 to i64
  %78 = getelementptr inbounds [17 x i32], ptr %6, i64 0, i64 %77
  %79 = load i32, ptr %78, align 4
  %80 = tail call i32 @llvm.fshl.i32(i32 %79, i32 %79, i32 13)
  %81 = add i32 %80, %76
  store i32 %81, ptr %74, align 4
  %82 = add i32 %spec.select.i.i5, -1
  %.not.i4.i = icmp eq i32 %spec.select.i.i5, 0
  %spec.select.i5.i = select i1 %.not.i4.i, i32 16, i32 %82
  %83 = add i32 %storemerge28.i.i7, -1
  %.not27.i6.i = icmp eq i32 %storemerge28.i.i7, 0
  %storemerge28.i7.i = select i1 %.not27.i6.i, i32 16, i32 %83
  %84 = shl i32 %81, 20
  %.sroa.0.0.insert.ext.i8.i = zext i32 %84 to i64
  %.sroa.0.4.insert.shift11.i9.i = shl nuw i64 %.sroa.0.0.insert.ext.i8.i, 32
  %85 = lshr i32 %81, 12
  %86 = or disjoint i32 %85, 1072693248
  %.sroa.0.0.insert.ext6.i10.i = zext nneg i32 %86 to i64
  %.sroa.0.0.insert.insert8.i11.i = or disjoint i64 %.sroa.0.4.insert.shift11.i9.i, %.sroa.0.0.insert.ext6.i10.i
  %.sroa.0.0.i13.i = bitcast i64 %.sroa.0.0.insert.insert8.i11.i to double
  %87 = fadd double %.sroa.0.0.i13.i, -1.000000e+00
  %88 = fmul double %87, 2.560000e+02
  %89 = fptosi double %88 to i32
  %90 = icmp slt i32 %89, 256
  %91 = fptoui double %88 to i8
  %.0.i = select i1 %90, i8 %91, i8 -1
  %92 = getelementptr inbounds i8, ptr %.013, i64 1
  %93 = load i8, ptr %.013, align 1
  %94 = xor i8 %.0.i, %93
  store i8 %94, ptr %.013, align 1
  %.not = icmp eq i32 %61, 0
  br i1 %.not, label %._crit_edge, label %LAME_getnext.exit

._crit_edge:                                      ; preds = %LAME_getnext.exit, %LAME_getnext.exit.us, %LAME_srand.exit
  ret void
}